target datalayout = "e-m:e-p270:32:32-p271:32:32-p272:64:64-i64:64-i128:128-f80:128-n8:16:32:64-S128"
target triple = "x86_64-unknown-linux-gnu"

%class.model_evaluator = type { ptr }
%class.rewriter_core = type { ptr, ptr, i8, i8, %class.ptr_vector, ptr, %class.svector, %class.ref_vector, %class.ptr_vector, ptr, %class.ref_vector.3, %class.obj_hashtable, ptr, i32, %class.svector.8 }
%class.svector = type { %class.vector.0 }
%class.vector.0 = type { ptr }
%class.ref_vector = type { %class.ref_vector_core }
%class.ref_vector_core = type { %class.ref_manager_wrapper, %class.ptr_vector.1 }
%class.ref_manager_wrapper = type { ptr }
%class.ptr_vector = type { %class.vector }
%class.vector = type { ptr }
%class.ref_vector.3 = type { %class.ref_vector_core.4 }
%class.ref_vector_core.4 = type { %class.ref_manager_wrapper.5, %class.ptr_vector.6 }
%class.ref_manager_wrapper.5 = type { ptr }
%class.ptr_vector.6 = type { %class.vector.7 }
%class.vector.7 = type { ptr }
%class.obj_hashtable = type { %class.core_hashtable.base, [4 x i8] }
%class.core_hashtable.base = type <{ ptr, i32, i32, i32 }>
%class.svector.8 = type { %class.vector.9 }
%class.vector.9 = type { ptr }
%class.ptr_vector.1 = type { %class.vector.2 }
%class.vector.2 = type { ptr }
%class.obj_ref = type { ptr, ptr }
%class.svector.11 = type { %class.vector.12 }
%class.vector.12 = type { ptr }
%class.obj_map.32 = type { %class.core_hashtable.33 }
%class.core_hashtable.33 = type <{ ptr, i32, i32, i32, [4 x i8] }>
%class.ast_manager = type { %class.reslimit, %class.small_object_allocator, %class.family_manager, %class.parray_manager, %class.dependency_manager, %class.parray_manager.94, %class.ptr_vector.97, i32, i8, %class.ast_table, %class.obj_map.100, %class.id_gen, %class.id_gen, ptr, ptr, ptr, ptr, ptr, i32, i8, [3 x i8], %class.u_map, ptr, i8, i8, ptr, %class.symbol, %class.obj_map.32, ptr }
%class.reslimit = type { %"struct.std::atomic", i8, i64, i64, %class.svector.79, %class.ptr_vector.81 }
%"struct.std::atomic" = type { %"struct.std::__atomic_base" }
%"struct.std::__atomic_base" = type { i32 }
%class.svector.79 = type { %class.vector.80 }
%class.vector.80 = type { ptr }
%class.ptr_vector.81 = type { %class.vector.82 }
%class.vector.82 = type { ptr }
%class.small_object_allocator = type { [32 x ptr], [32 x ptr], i64 }
%class.family_manager = type { i32, %class.symbol_table, %class.svector.88 }
%class.symbol_table = type { %class.core_hashtable.83, %class.vector.85, %class.svector.86 }
%class.core_hashtable.83 = type <{ ptr, i32, i32, i32, [4 x i8] }>
%class.vector.85 = type { ptr }
%class.svector.86 = type { %class.vector.87 }
%class.vector.87 = type { ptr }
%class.svector.88 = type { %class.vector.89 }
%class.vector.89 = type { ptr }
%class.parray_manager = type { ptr, ptr, %class.ptr_vector.90, %class.ptr_vector.90 }
%class.ptr_vector.90 = type { %class.vector.91 }
%class.vector.91 = type { ptr }
%class.dependency_manager = type { ptr, ptr, %class.ptr_vector.92 }
%class.ptr_vector.92 = type { %class.vector.93 }
%class.vector.93 = type { ptr }
%class.parray_manager.94 = type { ptr, ptr, %class.ptr_vector.95, %class.ptr_vector.95 }
%class.ptr_vector.95 = type { %class.vector.96 }
%class.vector.96 = type { ptr }
%class.ptr_vector.97 = type { %class.vector.98 }
%class.vector.98 = type { ptr }
%class.ast_table = type { %class.chashtable }
%class.chashtable = type { ptr, i32, i32, i32, i32, i32, i32, i32, ptr, ptr, ptr }
%class.obj_map.100 = type { %class.core_hashtable.101 }
%class.core_hashtable.101 = type <{ ptr, i32, i32, i32, [4 x i8] }>
%class.id_gen = type { i32, %class.svector.11 }
%class.u_map = type { %class.map }
%class.map = type { %class.table2map }
%class.table2map = type { %class.core_hashtable.105 }
%class.core_hashtable.105 = type <{ ptr, i32, i32, i32, [4 x i8] }>
%class.symbol = type { ptr }

; Function Attrs: mustprogress nounwind uwtable
define linkonce_odr hidden noundef nonnull align 8 dereferenceable(976) ptr @_ZNK12rewriter_tplIN3mev13evaluator_cfgEE1mEv(ptr noundef nonnull align 8 dereferenceable(536) %this) #5 comdat align 2 {
entry:
  %this.addr = alloca ptr, align 8
  store ptr %this, ptr %this.addr, align 8
  %this1 = load ptr, ptr %this.addr, align 8
  %m_manager = getelementptr inbounds %class.rewriter_core, ptr %this1, i32 0, i32 1
  %0 = load ptr, ptr %m_manager, align 8
  ret ptr %0
}

; Function Attrs: mustprogress nounwind uwtable
define linkonce_odr hidden noundef zeroext i1 @_ZNK11ast_manager7is_trueEPK4expr(ptr noundef nonnull align 8 dereferenceable(976) %this, ptr noundef %n) #5 comdat align 2 {
entry:
  %this.addr = alloca ptr, align 8
  %n.addr = alloca ptr, align 8
  store ptr %this, ptr %this.addr, align 8
  store ptr %n, ptr %n.addr, align 8
  %this1 = load ptr, ptr %this.addr, align 8
  %0 = load ptr, ptr %n.addr, align 8
  %m_true = getelementptr inbounds %class.ast_manager, ptr %this1, i32 0, i32 15
  %1 = load ptr, ptr %m_true, align 8
  %cmp = icmp eq ptr %0, %1
  ret i1 %cmp
}

; Function Attrs: mustprogress nounwind uwtable
define linkonce_odr hidden noundef ptr @_ZNK7obj_refI4expr11ast_managerEcvPS0_Ev(ptr noundef nonnull align 8 dereferenceable(16) %this) #5 comdat align 2 {
entry:
  %this.addr = alloca ptr, align 8
  store ptr %this, ptr %this.addr, align 8
  %this1 = load ptr, ptr %this.addr, align 8
  %m_obj = getelementptr inbounds %class.obj_ref, ptr %this1, i32 0, i32 0
  %0 = load ptr, ptr %m_obj, align 8
  ret ptr %0
}

; Function Attrs: mustprogress nounwind uwtable
define linkonce_odr hidden void @_ZN7obj_refI4expr11ast_managerEC2ERS1_(ptr noundef nonnull align 8 dereferenceable(16) %this, ptr noundef nonnull align 8 dereferenceable(976) %m) unnamed_addr #5 comdat align 2 {
entry:
  %this.addr = alloca ptr, align 8
  %m.addr = alloca ptr, align 8
  store ptr %this, ptr %this.addr, align 8
  store ptr %m, ptr %m.addr, align 8
  %this1 = load ptr, ptr %this.addr, align 8
  %m_obj = getelementptr inbounds %class.obj_ref, ptr %this1, i32 0, i32 0
  store ptr null, ptr %m_obj, align 8
  %m_manager = getelementptr inbounds %class.obj_ref, ptr %this1, i32 0, i32 1
  %0 = load ptr, ptr %m.addr, align 8
  store ptr %0, ptr %m_manager, align 8
  ret void
}

; Function Attrs: mustprogress uwtable
define hidden noundef nonnull align 8 dereferenceable(976) ptr @_ZNK15model_evaluator1mEv(ptr noundef nonnull align 8 dereferenceable(8) %this) #4 align 2 {
entry:
  %this.addr = alloca ptr, align 8
  store ptr %this, ptr %this.addr, align 8
  %this1 = load ptr, ptr %this.addr, align 8
  %m_imp = getelementptr inbounds %class.model_evaluator, ptr %this1, i32 0, i32 0
  %0 = load ptr, ptr %m_imp, align 8
  %call = call noundef nonnull align 8 dereferenceable(976) ptr @_ZNK12rewriter_tplIN3mev13evaluator_cfgEE1mEv(ptr noundef nonnull align 8 dereferenceable(536) %0)
  ret ptr %call
}

; Function Attrs: mustprogress uwtable
define hidden noundef zeroext i1 @_ZN15model_evaluator7is_trueEP4expr(ptr noundef nonnull align 8 dereferenceable(8) %this, ptr noundef %t) #4 align 2 personality ptr @__gxx_personality_v0 {
entry:
  %this.addr = alloca ptr, align 8
  %t.addr = alloca ptr, align 8
  %tmp = alloca %class.obj_ref, align 8
  %exn.slot = alloca ptr, align 8
  %ehselector.slot = alloca i32, align 4
  store ptr %this, ptr %this.addr, align 8
  store ptr %t, ptr %t.addr, align 8
  %this1 = load ptr, ptr %this.addr, align 8
  %call = call noundef nonnull align 8 dereferenceable(976) ptr @_ZNK15model_evaluator1mEv(ptr noundef nonnull align 8 dereferenceable(8) %this1)
  call void @_ZN7obj_refI4expr11ast_managerEC2ERS1_(ptr noundef nonnull align 8 dereferenceable(16) %tmp, ptr noundef nonnull align 8 dereferenceable(976) %call)
  %0 = load ptr, ptr %t.addr, align 8
  %call2 = invoke noundef zeroext i1 @_ZN15model_evaluator4evalEP4exprR7obj_refIS0_11ast_managerEb(ptr noundef nonnull align 8 dereferenceable(8) %this1, ptr noundef %0, ptr noundef nonnull align 8 dereferenceable(16) %tmp, i1 noundef zeroext true)
          to label %invoke.cont unwind label %lpad

invoke.cont:                                      ; preds = %entry
  br i1 %call2, label %land.rhs, label %land.end

land.rhs:                                         ; preds = %invoke.cont
  %call4 = invoke noundef nonnull align 8 dereferenceable(976) ptr @_ZNK15model_evaluator1mEv(ptr noundef nonnull align 8 dereferenceable(8) %this1)
          to label %invoke.cont3 unwind label %lpad

invoke.cont3:                                     ; preds = %land.rhs
  %call6 = invoke noundef ptr @_ZNK7obj_refI4expr11ast_managerEcvPS0_Ev(ptr noundef nonnull align 8 dereferenceable(16) %tmp)
          to label %invoke.cont5 unwind label %lpad

invoke.cont5:                                     ; preds = %invoke.cont3
  %call8 = invoke noundef zeroext i1 @_ZNK11ast_manager7is_trueEPK4expr(ptr noundef nonnull align 8 dereferenceable(976) %call4, ptr noundef %call6)
          to label %invoke.cont7 unwind label %lpad

invoke.cont7:                                     ; preds = %invoke.cont5
  br label %land.end

land.end:                                         ; preds = %invoke.cont7, %invoke.cont
  %1 = phi i1 [ false, %invoke.cont ], [ %call8, %invoke.cont7 ]
  call void @_ZN7obj_refI4expr11ast_managerED2Ev(ptr noundef nonnull align 8 dereferenceable(16) %tmp) #3
  ret i1 %1

lpad:                                             ; preds = %invoke.cont5, %invoke.cont3, %land.rhs, %entry
  %2 = landingpad { ptr, i32 }
          cleanup
  %3 = extractvalue { ptr, i32 } %2, 0
  store ptr %3, ptr %exn.slot, align 8
  %4 = extractvalue { ptr, i32 } %2, 1
  store i32 %4, ptr %ehselector.slot, align 4
  call void @_ZN7obj_refI4expr11ast_managerED2Ev(ptr noundef nonnull align 8 dereferenceable(16) %tmp) #3
  br label %eh.resume

eh.resume:                                        ; preds = %lpad
  %exn = load ptr, ptr %exn.slot, align 8
  %sel = load i32, ptr %ehselector.slot, align 4
  %lpad.val = insertvalue { ptr, i32 } poison, ptr %exn, 0
  %lpad.val9 = insertvalue { ptr, i32 } %lpad.val, i32 %sel, 1
  resume { ptr, i32 } %lpad.val9
}